target datalayout = "e-m:e-p270:32:32-p271:32:32-p272:64:64-i64:64-i128:128-f80:128-n8:16:32:64-S128"
target triple = "x86_64-pc-linux-gnu"

%struct.Nwk_Obj_t_ = type { ptr, ptr, ptr, %union.anon, i32, i32, i32, i32, float, float, float, i32, i32, i32, ptr }
%union.anon = type { ptr }
%struct.Nwk_Man_t_ = type { ptr, ptr, ptr, ptr, ptr, [5 x i32], i32, ptr, ptr, ptr, ptr, ptr, i32, i32, i32, i32, i32 }

; Function Attrs: inlinehint nounwind uwtable
define internal i32 @Nwk_ObjFanoutNum(ptr noundef %0) #4 {
  %2 = alloca ptr, align 8
  store ptr %0, ptr %2, align 8, !tbaa !86
  %3 = load ptr, ptr %2, align 8, !tbaa !86
  %4 = getelementptr inbounds nuw %struct.Nwk_Obj_t_, ptr %3, i32 0, i32 12
  %5 = load i32, ptr %4, align 8, !tbaa !105
  ret i32 %5
}

; Function Attrs: inlinehint nounwind uwtable
define internal i32 @Nwk_ObjLevel(ptr noundef %0) #4 {
  %2 = alloca ptr, align 8
  store ptr %0, ptr %2, align 8, !tbaa !86
  %3 = load ptr, ptr %2, align 8, !tbaa !86
  %4 = getelementptr inbounds nuw %struct.Nwk_Obj_t_, ptr %3, i32 0, i32 7
  %5 = load i32, ptr %4, align 4, !tbaa !104
  ret i32 %5
}

; Function Attrs: inlinehint nounwind uwtable
define internal void @Nwk_ObjSetTravIdCurrent(ptr noundef %0) #4 {
  %2 = alloca ptr, align 8
  store ptr %0, ptr %2, align 8, !tbaa !86
  %3 = load ptr, ptr %2, align 8, !tbaa !86
  %4 = getelementptr inbounds nuw %struct.Nwk_Obj_t_, ptr %3, i32 0, i32 0
  %5 = load ptr, ptr %4, align 8, !tbaa !97
  %6 = getelementptr inbounds nuw %struct.Nwk_Man_t_, ptr %5, i32 0, i32 12
  %7 = load i32, ptr %6, align 8, !tbaa !98
  %8 = load ptr, ptr %2, align 8, !tbaa !86
  %9 = getelementptr inbounds nuw %struct.Nwk_Obj_t_, ptr %8, i32 0, i32 6
  store i32 %7, ptr %9, align 8, !tbaa !96
  ret void
}

; Function Attrs: inlinehint nounwind uwtable
define internal i32 @Nwk_ObjIsTravIdCurrent(ptr noundef %0) #4 {
  %2 = alloca ptr, align 8
  store ptr %0, ptr %2, align 8, !tbaa !86
  %3 = load ptr, ptr %2, align 8, !tbaa !86
  %4 = getelementptr inbounds nuw %struct.Nwk_Obj_t_, ptr %3, i32 0, i32 6
  %5 = load i32, ptr %4, align 8, !tbaa !96
  %6 = load ptr, ptr %2, align 8, !tbaa !86
  %7 = getelementptr inbounds nuw %struct.Nwk_Obj_t_, ptr %6, i32 0, i32 0
  %8 = load ptr, ptr %7, align 8, !tbaa !97
  %9 = getelementptr inbounds nuw %struct.Nwk_Man_t_, ptr %8, i32 0, i32 12
  %10 = load i32, ptr %9, align 8, !tbaa !98
  %11 = icmp eq i32 %5, %10
  %12 = zext i1 %11 to i32
  ret i32 %12
}

; Function Attrs: inlinehint nounwind uwtable
define internal i32 @Nwk_ObjIsNode(ptr noundef %0) #4 {
  %2 = alloca ptr, align 8
  store ptr %0, ptr %2, align 8, !tbaa !86
  %3 = load ptr, ptr %2, align 8, !tbaa !86
  %4 = getelementptr inbounds nuw %struct.Nwk_Obj_t_, ptr %3, i32 0, i32 4
  %5 = load i32, ptr %4, align 8
  %6 = and i32 %5, 7
  %7 = icmp eq i32 %6, 3
  %8 = zext i1 %7 to i32
  ret i32 %8
}

; Function Attrs: nounwind uwtable
define void @Nwk_ManMarkFanouts_rec(ptr noundef %0, i32 noundef %1, i32 noundef %2) #0 {
  %4 = alloca ptr, align 8
  %5 = alloca i32, align 4
  %6 = alloca i32, align 4
  %7 = alloca ptr, align 8
  %8 = alloca i32, align 4
  %9 = alloca i32, align 4
  store ptr %0, ptr %4, align 8, !tbaa !86
  store i32 %1, ptr %5, align 4, !tbaa !3
  store i32 %2, ptr %6, align 4, !tbaa !3
  call void @llvm.lifetime.start.p0(i64 8, ptr %7) #11
  call void @llvm.lifetime.start.p0(i64 4, ptr %8) #11
  %10 = load ptr, ptr %4, align 8, !tbaa !86
  %11 = call i32 @Nwk_ObjIsNode(ptr noundef %10)
  %12 = icmp ne i32 %11, 0
  br i1 %12, label %14, label %13

13:                                               ; preds = %3
  store i32 1, ptr %9, align 4
  br label %62

14:                                               ; preds = %3
  %15 = load ptr, ptr %4, align 8, !tbaa !86
  %16 = call i32 @Nwk_ObjIsTravIdCurrent(ptr noundef %15)
  %17 = icmp ne i32 %16, 0
  br i1 %17, label %18, label %19

18:                                               ; preds = %14
  store i32 1, ptr %9, align 4
  br label %62

19:                                               ; preds = %14
  %20 = load ptr, ptr %4, align 8, !tbaa !86
  call void @Nwk_ObjSetTravIdCurrent(ptr noundef %20)
  %21 = load ptr, ptr %4, align 8, !tbaa !86
  %22 = call i32 @Nwk_ObjLevel(ptr noundef %21)
  %23 = load i32, ptr %5, align 4, !tbaa !3
  %24 = icmp sgt i32 %22, %23
  br i1 %24, label %25, label %26

25:                                               ; preds = %19
  store i32 1, ptr %9, align 4
  br label %62

26:                                               ; preds = %19
  %27 = load ptr, ptr %4, align 8, !tbaa !86
  %28 = call i32 @Nwk_ObjFanoutNum(ptr noundef %27)
  %29 = load i32, ptr %6, align 4, !tbaa !3
  %30 = icmp sgt i32 %28, %29
  br i1 %30, label %31, label %32

31:                                               ; preds = %26
  store i32 1, ptr %9, align 4
  br label %62

32:                                               ; preds = %26
  store i32 0, ptr %8, align 4, !tbaa !3
  br label %33

33:                                               ; preds = %58, %32
  %34 = load i32, ptr %8, align 4, !tbaa !3
  %35 = load ptr, ptr %4, align 8, !tbaa !86
  %36 = getelementptr inbounds nuw %struct.Nwk_Obj_t_, ptr %35, i32 0, i32 12
  %37 = load i32, ptr %36, align 8, !tbaa !105
  %38 = icmp slt i32 %34, %37
  br i1 %38, label %39, label %52

39:                                               ; preds = %33
  %40 = load ptr, ptr %4, align 8, !tbaa !86
  %41 = getelementptr inbounds nuw %struct.Nwk_Obj_t_, ptr %40, i32 0, i32 14
  %42 = load ptr, ptr %41, align 8, !tbaa !94
  %43 = load ptr, ptr %4, align 8, !tbaa !86
  %44 = getelementptr inbounds nuw %struct.Nwk_Obj_t_, ptr %43, i32 0, i32 11
  %45 = load i32, ptr %44, align 4, !tbaa !88
  %46 = load i32, ptr %8, align 4, !tbaa !3
  %47 = add nsw i32 %45, %46
  %48 = sext i32 %47 to i64
  %49 = getelementptr inbounds ptr, ptr %42, i64 %48
  %50 = load ptr, ptr %49, align 8, !tbaa !86
  store ptr %50, ptr %7, align 8, !tbaa !86
  %51 = icmp ne ptr %50, null
  br label %52

52:                                               ; preds = %39, %33
  %53 = phi i1 [ false, %33 ], [ %51, %39 ]
  br i1 %53, label %54, label %61

54:                                               ; preds = %52
  %55 = load ptr, ptr %7, align 8, !tbaa !86
  %56 = load i32, ptr %5, align 4, !tbaa !3
  %57 = load i32, ptr %6, align 4, !tbaa !3
  call void @Nwk_ManMarkFanouts_rec(ptr noundef %55, i32 noundef %56, i32 noundef %57)
  br label %58

58:                                               ; preds = %54
  %59 = load i32, ptr %8, align 4, !tbaa !3
  %60 = add nsw i32 %59, 1
  store i32 %60, ptr %8, align 4, !tbaa !3
  br label %33, !llvm.loop !106

61:                                               ; preds = %52
  store i32 0, ptr %9, align 4
  br label %62

62:                                               ; preds = %61, %31, %25, %18, %13
  call void @llvm.lifetime.end.p0(i64 4, ptr %8) #11
  call void @llvm.lifetime.end.p0(i64 8, ptr %7) #11
  %63 = load i32, ptr %9, align 4
  switch i32 %63, label %65 [
    i32 0, label %64
    i32 1, label %64
  ]

64:                                               ; preds = %62, %62
  ret void

65:                                               ; preds = %62
  unreachable
}