; Function Attrs: nofree nosync nounwind memory(readwrite, inaccessiblemem: none) uwtable
define void @Nwk_ManMarkFanouts_rec(ptr noundef captures(none) %0, i32 noundef %1, i32 noundef %2) local_unnamed_addr #13 {
  %4 = getelementptr i8, ptr %0, i64 32
  %.val = load i32, ptr %4, align 8
  %5 = and i32 %.val, 7
  %.not = icmp eq i32 %5, 3
  br i1 %.not, label %6, label %.critedge

6:                                                ; preds = %3
  %.val20 = load ptr, ptr %0, align 8, !tbaa !83
  %7 = getelementptr i8, ptr %0, i64 40
  %.val21 = load i32, ptr %7, align 8, !tbaa !89
  %8 = getelementptr i8, ptr %.val20, i64 104
  %.val20.val = load i32, ptr %8, align 8, !tbaa !90
  %.not24 = icmp eq i32 %.val21, %.val20.val
  br i1 %.not24, label %.critedge, label %9

9:                                                ; preds = %6
  store i32 %.val20.val, ptr %7, align 8, !tbaa !89
  %10 = getelementptr i8, ptr %0, i64 44
  %.val22 = load i32, ptr %10, align 4, !tbaa !97
  %11 = icmp sgt i32 %.val22, %1
  br i1 %11, label %.critedge, label %12

12:                                               ; preds = %9
  %13 = getelementptr i8, ptr %0, i64 64
  %.val23 = load i32, ptr %13, align 8, !tbaa !103
  %14 = icmp sgt i32 %.val23, %2
  br i1 %14, label %.critedge, label %.preheader

.preheader:                                       ; preds = %12
  %15 = getelementptr inbounds nuw i8, ptr %0, i64 72
  %16 = icmp sgt i32 %.val23, 0
  br i1 %16, label %.lr.ph, label %.critedge

.lr.ph:                                           ; preds = %.preheader
  %17 = getelementptr inbounds nuw i8, ptr %0, i64 60
  br label %18

18:                                               ; preds = %.lr.ph, %25
  %.025 = phi i32 [ 0, %.lr.ph ], [ %26, %25 ]
  %19 = load ptr, ptr %15, align 8, !tbaa !99
  %20 = load i32, ptr %17, align 4, !tbaa !98
  %21 = add nsw i32 %20, %.025
  %22 = sext i32 %21 to i64
  %23 = getelementptr inbounds ptr, ptr %19, i64 %22
  %24 = load ptr, ptr %23, align 8, !tbaa !100
  %.not19 = icmp eq ptr %24, null
  br i1 %.not19, label %.critedge, label %25

25:                                               ; preds = %18
  tail call void @Nwk_ManMarkFanouts_rec(ptr noundef nonnull %24, i32 noundef %1, i32 noundef %2)
  %26 = add nuw nsw i32 %.025, 1
  %27 = load i32, ptr %13, align 8, !tbaa !103
  %28 = icmp slt i32 %26, %27
  br i1 %28, label %18, label %.critedge, !llvm.loop !104

.critedge:                                        ; preds = %25, %18, %.preheader, %12, %9, %6, %3
  ret void
}